target datalayout = "e-m:e-p270:32:32-p271:32:32-p272:64:64-i64:64-i128:128-f80:128-n8:16:32:64-S128"
target triple = "x86_64-pc-linux-gnu"

%struct.ident_t = type { i32, i32, i32, i32, ptr }
%"class.LightGBM::Metadata" = type <{ %"class.std::__cxx11::basic_string", i32, i32, i32, [4 x i8], %"class.std::vector", %"class.std::vector", %"class.std::vector.3", %"class.std::vector.8", %"class.std::vector.3", %"class.std::vector", i32, [4 x i8], i64, %"class.std::vector.13", %"class.std::vector.3", %"class.std::mutex", i8, i8, i8, i8, [4 x i8] }>
%"class.std::__cxx11::basic_string" = type { %"struct.std::__cxx11::basic_string<char>::_Alloc_hider", i64, %union.anon }
%"struct.std::__cxx11::basic_string<char>::_Alloc_hider" = type { ptr }
%union.anon = type { i64, [8 x i8] }
%"class.std::vector.8" = type { %"struct.std::_Vector_base.9" }
%"struct.std::_Vector_base.9" = type { %"struct.std::_Vector_base<std::__cxx11::basic_string<char>, std::allocator<std::__cxx11::basic_string<char>>>::_Vector_impl" }
%"struct.std::_Vector_base<std::__cxx11::basic_string<char>, std::allocator<std::__cxx11::basic_string<char>>>::_Vector_impl" = type { %"struct.std::_Vector_base<std::__cxx11::basic_string<char>, std::allocator<std::__cxx11::basic_string<char>>>::_Vector_impl_data" }
%"struct.std::_Vector_base<std::__cxx11::basic_string<char>, std::allocator<std::__cxx11::basic_string<char>>>::_Vector_impl_data" = type { ptr, ptr, ptr }
%"class.std::vector" = type { %"struct.std::_Vector_base" }
%"struct.std::_Vector_base" = type { %"struct.std::_Vector_base<float, std::allocator<float>>::_Vector_impl" }
%"struct.std::_Vector_base<float, std::allocator<float>>::_Vector_impl" = type { %"struct.std::_Vector_base<float, std::allocator<float>>::_Vector_impl_data" }
%"struct.std::_Vector_base<float, std::allocator<float>>::_Vector_impl_data" = type { ptr, ptr, ptr }
%"class.std::vector.13" = type { %"struct.std::_Vector_base.14" }
%"struct.std::_Vector_base.14" = type { %"struct.std::_Vector_base<double, std::allocator<double>>::_Vector_impl" }
%"struct.std::_Vector_base<double, std::allocator<double>>::_Vector_impl" = type { %"struct.std::_Vector_base<double, std::allocator<double>>::_Vector_impl_data" }
%"struct.std::_Vector_base<double, std::allocator<double>>::_Vector_impl_data" = type { ptr, ptr, ptr }
%"class.std::vector.3" = type { %"struct.std::_Vector_base.4" }
%"struct.std::_Vector_base.4" = type { %"struct.std::_Vector_base<int, std::allocator<int>>::_Vector_impl" }
%"struct.std::_Vector_base<int, std::allocator<int>>::_Vector_impl" = type { %"struct.std::_Vector_base<int, std::allocator<int>>::_Vector_impl_data" }
%"struct.std::_Vector_base<int, std::allocator<int>>::_Vector_impl_data" = type { ptr, ptr, ptr }
%"class.std::mutex" = type { %"class.std::__mutex_base" }
%"class.std::__mutex_base" = type { %union.pthread_mutex_t }
%union.pthread_mutex_t = type { %struct.__pthread_mutex_s }
%struct.__pthread_mutex_s = type { i32, i32, i32, i32, i32, i16, i16, %struct.__pthread_internal_list }
%struct.__pthread_internal_list = type { ptr, ptr }
%"class.LightGBM::TextReader" = type <{ ptr, %"class.std::vector.8", %"class.std::__cxx11::basic_string", %"class.std::__cxx11::basic_string", i8, [7 x i8], i64, i32, [4 x i8] }>

@1 = private unnamed_addr constant %struct.ident_t { i32 0, i32 514, i32 0, i32 22, ptr @0 }, align 8

; Function Attrs: mustprogress nounwind uwtable
define linkonce_odr noundef zeroext i1 @_ZSt5isnanf(float noundef %0) #4 comdat {
  %2 = alloca float, align 4
  store float %0, ptr %2, align 4, !tbaa !107
  %3 = load float, ptr %2, align 4, !tbaa !107
  %4 = call i1 @llvm.is.fpclass.f32(float %3, i32 3)
  ret i1 %4
}

; Function Attrs: mustprogress nounwind uwtable
define available_externally noundef ptr @_ZNKSt7__cxx1112basic_stringIcSt11char_traitsIcESaIcEE7_M_dataEv(ptr noundef nonnull align 8 dereferenceable(32) %0) #4 align 2 {
  %2 = alloca ptr, align 8
  store ptr %0, ptr %2, align 8, !tbaa !47
  %3 = load ptr, ptr %2, align 8
  %4 = getelementptr inbounds nuw %"class.std::__cxx11::basic_string", ptr %3, i32 0, i32 0
  %5 = getelementptr inbounds nuw %"struct.std::__cxx11::basic_string<char>::_Alloc_hider", ptr %4, i32 0, i32 0
  %6 = load ptr, ptr %5, align 8, !tbaa !69
  ret ptr %6
}

; Function Attrs: mustprogress nounwind uwtable
define linkonce_odr noundef nonnull align 4 dereferenceable(4) ptr @_ZNSt6vectorIfSaIfEEixEm(ptr noundef nonnull align 8 dereferenceable(24) %0, i64 noundef %1) #4 comdat align 2 {
  %3 = alloca ptr, align 8
  %4 = alloca i64, align 8
  store ptr %0, ptr %3, align 8, !tbaa !48
  store i64 %1, ptr %4, align 8, !tbaa !64
  %5 = load ptr, ptr %3, align 8
  %6 = getelementptr inbounds nuw %"struct.std::_Vector_base", ptr %5, i32 0, i32 0
  %7 = getelementptr inbounds nuw %"struct.std::_Vector_base<float, std::allocator<float>>::_Vector_impl_data", ptr %6, i32 0, i32 0
  %8 = load ptr, ptr %7, align 8, !tbaa !115
  %9 = load i64, ptr %4, align 8, !tbaa !64
  %10 = getelementptr inbounds nuw float, ptr %8, i64 %9
  ret ptr %10
}

; Function Attrs: inlinehint mustprogress uwtable
define internal noundef float @_ZN8LightGBM6CommonL8AvoidInfEf(float noundef %0) #10 {
  %2 = alloca float, align 4
  %3 = alloca float, align 4
  store float %0, ptr %3, align 4, !tbaa !107
  %4 = load float, ptr %3, align 4, !tbaa !107
  %5 = call noundef zeroext i1 @_ZSt5isnanf(float noundef %4)
  br i1 %5, label %6, label %7

6:                                                ; preds = %1
  store float 0.000000e+00, ptr %2, align 4
  br label %19

7:                                                ; preds = %1
  %8 = load float, ptr %3, align 4, !tbaa !107
  %9 = fpext float %8 to double
  %10 = fcmp oge double %9, 0x47D2CED32A16A1B1
  br i1 %10, label %11, label %12

11:                                               ; preds = %7
  store float 0x47D2CED320000000, ptr %2, align 4
  br label %19

12:                                               ; preds = %7
  %13 = load float, ptr %3, align 4, !tbaa !107
  %14 = fpext float %13 to double
  %15 = fcmp ole double %14, 0xC7D2CED32A16A1B1
  br i1 %15, label %16, label %17

16:                                               ; preds = %12
  store float 0xC7D2CED320000000, ptr %2, align 4
  br label %19

17:                                               ; preds = %12
  %18 = load float, ptr %3, align 4, !tbaa !107
  store float %18, ptr %2, align 4
  br label %19

19:                                               ; preds = %17, %16, %11, %6
  %20 = load float, ptr %2, align 4
  ret float %20
}

; Function Attrs: mustprogress nounwind uwtable
define available_externally noundef ptr @_ZNKSt7__cxx1112basic_stringIcSt11char_traitsIcESaIcEE5c_strEv(ptr noundef nonnull align 8 dereferenceable(32) %0) #4 align 2 {
  %2 = alloca ptr, align 8
  store ptr %0, ptr %2, align 8, !tbaa !47
  %3 = load ptr, ptr %2, align 8
  %4 = call noundef ptr @_ZNKSt7__cxx1112basic_stringIcSt11char_traitsIcESaIcEE7_M_dataEv(ptr noundef nonnull align 8 dereferenceable(32) %3)
  ret ptr %4
}

; Function Attrs: mustprogress nounwind uwtable
define linkonce_odr noundef nonnull align 8 dereferenceable(32) ptr @_ZNSt6vectorINSt7__cxx1112basic_stringIcSt11char_traitsIcESaIcEEESaIS5_EEixEm(ptr noundef nonnull align 8 dereferenceable(24) %0, i64 noundef %1) #4 comdat align 2 {
  %3 = alloca ptr, align 8
  %4 = alloca i64, align 8
  store ptr %0, ptr %3, align 8, !tbaa !52
  store i64 %1, ptr %4, align 8, !tbaa !64
  %5 = load ptr, ptr %3, align 8
  %6 = getelementptr inbounds nuw %"struct.std::_Vector_base.9", ptr %5, i32 0, i32 0
  %7 = getelementptr inbounds nuw %"struct.std::_Vector_base<std::__cxx11::basic_string<char>, std::allocator<std::__cxx11::basic_string<char>>>::_Vector_impl_data", ptr %6, i32 0, i32 0
  %8 = load ptr, ptr %7, align 8, !tbaa !117
  %9 = load i64, ptr %4, align 8, !tbaa !64
  %10 = getelementptr inbounds nuw %"class.std::__cxx11::basic_string", ptr %8, i64 %9
  ret ptr %10
}

; Function Attrs: inlinehint mustprogress nounwind uwtable
define linkonce_odr noundef nonnull align 8 dereferenceable(24) ptr @_ZN8LightGBM10TextReaderImE5LinesB5cxx11Ev(ptr noundef nonnull align 8 dereferenceable(116) %0) #12 comdat align 2 {
  %2 = alloca ptr, align 8
  store ptr %0, ptr %2, align 8, !tbaa !520
  %3 = load ptr, ptr %2, align 8
  %4 = getelementptr inbounds nuw %"class.LightGBM::TextReader", ptr %3, i32 0, i32 1
  ret ptr %4
}

; Function Attrs: alwaysinline norecurse nounwind uwtable
define internal void @_ZN8LightGBM8Metadata11LoadWeightsEv.omp_outlined(ptr noalias noundef %0, ptr noalias noundef %1, ptr noundef %2, ptr noundef nonnull align 8 dereferenceable(116) %3) #20 personality ptr @__gxx_personality_v0 {
  %5 = alloca ptr, align 8
  %6 = alloca ptr, align 8
  %7 = alloca ptr, align 8
  %8 = alloca ptr, align 8
  %9 = alloca i32, align 4
  %10 = alloca i32, align 4
  %11 = alloca i32, align 4
  %12 = alloca i32, align 4
  %13 = alloca i32, align 4
  %14 = alloca i32, align 4
  %15 = alloca i32, align 4
  %16 = alloca i32, align 4
  %17 = alloca i32, align 4
  %18 = alloca double, align 8
  store ptr %0, ptr %5, align 8, !tbaa !119
  store ptr %1, ptr %6, align 8, !tbaa !119
  store ptr %2, ptr %7, align 8, !tbaa !4
  store ptr %3, ptr %8, align 8, !tbaa !520
  %19 = load ptr, ptr %7, align 8, !tbaa !4
  %20 = load ptr, ptr %8, align 8, !tbaa !520
  call void @llvm.lifetime.start.p0(i64 4, ptr %9) #3
  call void @llvm.lifetime.start.p0(i64 4, ptr %10) #3
  %21 = getelementptr inbounds nuw %"class.LightGBM::Metadata", ptr %19, i32 0, i32 2
  %22 = load i32, ptr %21, align 4, !tbaa !9
  store i32 %22, ptr %10, align 4, !tbaa !103
  call void @llvm.lifetime.start.p0(i64 4, ptr %11) #3
  %23 = load i32, ptr %10, align 4, !tbaa !103
  %24 = sub nsw i32 %23, 0
  %25 = sdiv i32 %24, 1
  %26 = sub nsw i32 %25, 1
  store i32 %26, ptr %11, align 4, !tbaa !103
  call void @llvm.lifetime.start.p0(i64 4, ptr %12) #3
  store i32 0, ptr %12, align 4, !tbaa !103
  call void @llvm.lifetime.end.p0(i64 4, ptr %12) #3
  %27 = load i32, ptr %10, align 4, !tbaa !103
  %28 = icmp slt i32 0, %27
  br i1 %28, label %29, label %76

29:                                               ; preds = %4
  call void @llvm.lifetime.start.p0(i64 4, ptr %13) #3
  store i32 0, ptr %13, align 4, !tbaa !103
  call void @llvm.lifetime.start.p0(i64 4, ptr %14) #3
  %30 = load i32, ptr %11, align 4, !tbaa !103
  store i32 %30, ptr %14, align 4, !tbaa !103
  call void @llvm.lifetime.start.p0(i64 4, ptr %15) #3
  store i32 1, ptr %15, align 4, !tbaa !103
  call void @llvm.lifetime.start.p0(i64 4, ptr %16) #3
  store i32 0, ptr %16, align 4, !tbaa !103
  call void @llvm.lifetime.start.p0(i64 4, ptr %17) #3
  %31 = load ptr, ptr %5, align 8
  %32 = load i32, ptr %31, align 4, !tbaa !103
  call void @__kmpc_for_static_init_4(ptr @1, i32 %32, i32 34, ptr %16, ptr %13, ptr %14, ptr %15, i32 1, i32 1)
  %33 = load i32, ptr %14, align 4, !tbaa !103
  %34 = load i32, ptr %11, align 4, !tbaa !103
  %35 = icmp sgt i32 %33, %34
  br i1 %35, label %36, label %38

36:                                               ; preds = %29
  %37 = load i32, ptr %11, align 4, !tbaa !103
  br label %40

38:                                               ; preds = %29
  %39 = load i32, ptr %14, align 4, !tbaa !103
  br label %40

40:                                               ; preds = %38, %36
  %41 = phi i32 [ %37, %36 ], [ %39, %38 ]
  store i32 %41, ptr %14, align 4, !tbaa !103
  %42 = load i32, ptr %13, align 4, !tbaa !103
  store i32 %42, ptr %9, align 4, !tbaa !103
  br label %43

43:                                               ; preds = %69, %40
  %44 = load i32, ptr %9, align 4, !tbaa !103
  %45 = load i32, ptr %14, align 4, !tbaa !103
  %46 = icmp sle i32 %44, %45
  br i1 %46, label %48, label %47

47:                                               ; preds = %43
  br label %72

48:                                               ; preds = %43
  %49 = load i32, ptr %9, align 4, !tbaa !103
  %50 = mul nsw i32 %49, 1
  %51 = add nsw i32 0, %50
  store i32 %51, ptr %17, align 4, !tbaa !103
  call void @llvm.lifetime.start.p0(i64 8, ptr %18) #3
  store double 0.000000e+00, ptr %18, align 8, !tbaa !162
  %52 = invoke noundef nonnull align 8 dereferenceable(24) ptr @_ZN8LightGBM10TextReaderImE5LinesB5cxx11Ev(ptr noundef nonnull align 8 dereferenceable(116) %20)
          to label %53 unwind label %77

53:                                               ; preds = %48
  %54 = load i32, ptr %17, align 4, !tbaa !103
  %55 = sext i32 %54 to i64
  %56 = call noundef nonnull align 8 dereferenceable(32) ptr @_ZNSt6vectorINSt7__cxx1112basic_stringIcSt11char_traitsIcESaIcEEESaIS5_EEixEm(ptr noundef nonnull align 8 dereferenceable(24) %52, i64 noundef %55) #3
  %57 = call noundef ptr @_ZNKSt7__cxx1112basic_stringIcSt11char_traitsIcESaIcEE5c_strEv(ptr noundef nonnull align 8 dereferenceable(32) %56) #3
  %58 = invoke noundef ptr @_ZN8LightGBM6CommonL4AtofEPKcPd(ptr noundef %57, ptr noundef %18)
          to label %59 unwind label %77

59:                                               ; preds = %53
  %60 = load double, ptr %18, align 8, !tbaa !162
  %61 = fptrunc double %60 to float
  %62 = invoke noundef float @_ZN8LightGBM6CommonL8AvoidInfEf(float noundef %61)
          to label %63 unwind label %77

63:                                               ; preds = %59
  %64 = getelementptr inbounds nuw %"class.LightGBM::Metadata", ptr %19, i32 0, i32 6
  %65 = load i32, ptr %17, align 4, !tbaa !103
  %66 = sext i32 %65 to i64
  %67 = call noundef nonnull align 4 dereferenceable(4) ptr @_ZNSt6vectorIfSaIfEEixEm(ptr noundef nonnull align 8 dereferenceable(24) %64, i64 noundef %66) #3
  store float %62, ptr %67, align 4, !tbaa !107
  call void @llvm.lifetime.end.p0(i64 8, ptr %18) #3
  br label %68

68:                                               ; preds = %63
  br label %69

69:                                               ; preds = %68
  %70 = load i32, ptr %9, align 4, !tbaa !103
  %71 = add nsw i32 %70, 1
  store i32 %71, ptr %9, align 4, !tbaa !103
  br label %43

72:                                               ; preds = %47
  br label %73

73:                                               ; preds = %72
  %74 = load ptr, ptr %5, align 8
  %75 = load i32, ptr %74, align 4, !tbaa !103
  call void @__kmpc_for_static_fini(ptr @1, i32 %75)
  call void @llvm.lifetime.end.p0(i64 4, ptr %17) #3
  call void @llvm.lifetime.end.p0(i64 4, ptr %16) #3
  call void @llvm.lifetime.end.p0(i64 4, ptr %15) #3
  call void @llvm.lifetime.end.p0(i64 4, ptr %14) #3
  call void @llvm.lifetime.end.p0(i64 4, ptr %13) #3
  br label %76

76:                                               ; preds = %73, %4
  call void @llvm.lifetime.end.p0(i64 4, ptr %11) #3
  call void @llvm.lifetime.end.p0(i64 4, ptr %10) #3
  call void @llvm.lifetime.end.p0(i64 4, ptr %9) #3
  ret void

77:                                               ; preds = %59, %53, %48
  %78 = landingpad { ptr, i32 }
          catch ptr null
  %79 = extractvalue { ptr, i32 } %78, 0
  call void @__clang_call_terminate(ptr %79) #25
  unreachable
}