; Function Attrs: alwaysinline norecurse nounwind uwtable
define internal void @_ZN8LightGBM8Metadata11LoadWeightsEv.omp_outlined(ptr noalias noundef readonly captures(none) %0, ptr noalias readnone captures(none) %1, ptr noundef readonly captures(none) %2, ptr noundef nonnull readonly align 8 captures(none) dereferenceable(116) %3) #21 personality ptr @__gxx_personality_v0 {
  %5 = alloca i32, align 4
  %6 = alloca i32, align 4
  %7 = alloca i32, align 4
  %8 = alloca i32, align 4
  %9 = alloca double, align 8
  %10 = getelementptr inbounds nuw i8, ptr %2, i64 36
  %11 = load i32, ptr %10, align 4, !tbaa !14
  %12 = icmp sgt i32 %11, 0
  br i1 %12, label %13, label %39

13:                                               ; preds = %4
  %14 = add nsw i32 %11, -1
  call void @llvm.lifetime.start.p0(i64 4, ptr nonnull %5) #20
  store i32 0, ptr %5, align 4, !tbaa !59
  call void @llvm.lifetime.start.p0(i64 4, ptr nonnull %6) #20
  store i32 %14, ptr %6, align 4, !tbaa !59
  call void @llvm.lifetime.start.p0(i64 4, ptr nonnull %7) #20
  store i32 1, ptr %7, align 4, !tbaa !59
  call void @llvm.lifetime.start.p0(i64 4, ptr nonnull %8) #20
  store i32 0, ptr %8, align 4, !tbaa !59
  %15 = load i32, ptr %0, align 4, !tbaa !59
  call void @__kmpc_for_static_init_4(ptr nonnull @1, i32 %15, i32 34, ptr nonnull %8, ptr nonnull %5, ptr nonnull %6, ptr nonnull %7, i32 1, i32 1)
  %16 = load i32, ptr %6, align 4, !tbaa !59
  %17 = call i32 @llvm.smin.i32(i32 %16, i32 %14)
  store i32 %17, ptr %6, align 4, !tbaa !59
  %18 = load i32, ptr %5, align 4, !tbaa !59
  %.not13 = icmp sgt i32 %18, %17
  br i1 %.not13, label %._crit_edge, label %.lr.ph

.lr.ph:                                           ; preds = %13
  %19 = getelementptr inbounds nuw i8, ptr %3, i64 8
  %20 = getelementptr inbounds nuw i8, ptr %2, i64 72
  %21 = sext i32 %18 to i64
  br label %22

22:                                               ; preds = %.lr.ph, %_ZN8LightGBM6CommonL8AvoidInfEf.exit
  %indvars.iv = phi i64 [ %21, %.lr.ph ], [ %indvars.iv.next, %_ZN8LightGBM6CommonL8AvoidInfEf.exit ]
  call void @llvm.lifetime.start.p0(i64 8, ptr nonnull %9) #20
  store double 0.000000e+00, ptr %9, align 8, !tbaa !93
  %23 = load ptr, ptr %19, align 8, !tbaa !58
  %24 = getelementptr inbounds nuw %"class.std::__cxx11::basic_string", ptr %23, i64 %indvars.iv
  %25 = load ptr, ptr %24, align 8, !tbaa !43
  invoke fastcc void @_ZN8LightGBM6CommonL4AtofEPKcPd(ptr noundef %25, ptr noundef %9)
          to label %26 unwind label %40

26:                                               ; preds = %22
  %27 = load double, ptr %9, align 8, !tbaa !93
  %28 = fptrunc double %27 to float
  %29 = fcmp uno float %28, 0.000000e+00
  br i1 %29, label %_ZN8LightGBM6CommonL8AvoidInfEf.exit, label %30

30:                                               ; preds = %26
  %31 = fpext float %28 to double
  %32 = fcmp ult double %31, 0x47D2CED32A16A1B1
  br i1 %32, label %33, label %_ZN8LightGBM6CommonL8AvoidInfEf.exit

33:                                               ; preds = %30
  %34 = fcmp ugt double %31, 0xC7D2CED32A16A1B1
  %..i = select i1 %34, float %28, float 0xC7D2CED320000000
  br label %_ZN8LightGBM6CommonL8AvoidInfEf.exit

_ZN8LightGBM6CommonL8AvoidInfEf.exit:             ; preds = %33, %30, %26
  %.0.i = phi float [ 0.000000e+00, %26 ], [ 0x47D2CED320000000, %30 ], [ %..i, %33 ]
  %35 = load ptr, ptr %20, align 8, !tbaa !70
  %36 = getelementptr inbounds nuw float, ptr %35, i64 %indvars.iv
  store float %.0.i, ptr %36, align 4, !tbaa !68
  call void @llvm.lifetime.end.p0(i64 8, ptr nonnull %9) #20
  %indvars.iv.next = add nsw i64 %indvars.iv, 1
  %37 = load i32, ptr %6, align 4, !tbaa !59
  %38 = sext i32 %37 to i64
  %.not.not = icmp slt i64 %indvars.iv, %38
  br i1 %.not.not, label %22, label %._crit_edge

._crit_edge:                                      ; preds = %_ZN8LightGBM6CommonL8AvoidInfEf.exit, %13
  call void @__kmpc_for_static_fini(ptr nonnull @1, i32 %15)
  call void @llvm.lifetime.end.p0(i64 4, ptr nonnull %8) #20
  call void @llvm.lifetime.end.p0(i64 4, ptr nonnull %7) #20
  call void @llvm.lifetime.end.p0(i64 4, ptr nonnull %6) #20
  call void @llvm.lifetime.end.p0(i64 4, ptr nonnull %5) #20
  br label %39

39:                                               ; preds = %._crit_edge, %4
  ret void

40:                                               ; preds = %22
  %41 = landingpad { ptr, i32 }
          catch ptr null
  %42 = extractvalue { ptr, i32 } %41, 0
  call void @__clang_call_terminate(ptr %42) #35
  unreachable
}